target datalayout = "e-m:e-p270:32:32-p271:32:32-p272:64:64-i64:64-i128:128-f80:128-n8:16:32:64-S128"
target triple = "x86_64-pc-linux-gnu"

@.str = private unnamed_addr constant [11 x i8] c"SANDCASTLE\00", align 1
@.str.1 = private unnamed_addr constant [2 x i8] c"1\00", align 1
@.str.2 = private unnamed_addr constant [12 x i8] c"TW_JOB_USER\00", align 1
@.str.3 = private unnamed_addr constant [11 x i8] c"sandcastle\00", align 1

; Function Attrs: mustprogress nounwind uwtable
define dso_local noundef zeroext i1 @_Z18runs_on_sandcastlev() #1 {
  %1 = alloca i1, align 1
  %2 = alloca ptr, align 8
  %3 = alloca i32, align 4
  %4 = alloca ptr, align 8
  call void @llvm.lifetime.start.p0(i64 8, ptr %2) #5
  %5 = call ptr @getenv(ptr noundef @.str) #5
  store ptr %5, ptr %2, align 8, !tbaa !22
  %6 = load ptr, ptr %2, align 8, !tbaa !22
  %7 = icmp ne ptr %6, null
  br i1 %7, label %8, label %13

8:                                                ; preds = %0
  %9 = load ptr, ptr %2, align 8, !tbaa !22
  %10 = call i32 @strcmp(ptr noundef %9, ptr noundef @.str.1) #21
  %11 = icmp ne i32 %10, 0
  br i1 %11, label %13, label %12

12:                                               ; preds = %8
  store i1 true, ptr %1, align 1
  store i32 1, ptr %3, align 4
  br label %24

13:                                               ; preds = %8, %0
  call void @llvm.lifetime.start.p0(i64 8, ptr %4) #5
  %14 = call ptr @getenv(ptr noundef @.str.2) #5
  store ptr %14, ptr %4, align 8, !tbaa !22
  %15 = load ptr, ptr %4, align 8, !tbaa !22
  %16 = icmp ne ptr %15, null
  br i1 %16, label %17, label %22

17:                                               ; preds = %13
  %18 = load ptr, ptr %4, align 8, !tbaa !22
  %19 = call i32 @strcmp(ptr noundef %18, ptr noundef @.str.3) #21
  %20 = icmp ne i32 %19, 0
  br i1 %20, label %22, label %21

21:                                               ; preds = %17
  store i1 true, ptr %1, align 1
  store i32 1, ptr %3, align 4
  br label %23

22:                                               ; preds = %17, %13
  store i1 false, ptr %1, align 1
  store i32 1, ptr %3, align 4
  br label %23

23:                                               ; preds = %22, %21
  call void @llvm.lifetime.end.p0(i64 8, ptr %4) #5
  br label %24

24:                                               ; preds = %23, %12
  call void @llvm.lifetime.end.p0(i64 8, ptr %2) #5
  %25 = load i1, ptr %1, align 1
  ret i1 %25
}