; Function Attrs: mustprogress nofree nounwind willreturn memory(read) uwtable
define dso_local noundef zeroext i1 @_Z18runs_on_sandcastlev() local_unnamed_addr #5 {
  %1 = tail call ptr @getenv(ptr noundef nonnull @.str) #21
  %.not = icmp eq ptr %1, null
  br i1 %.not, label %.tail.thread, label %sub_0

sub_0:                                            ; preds = %0
  %2 = load i8, ptr %1, align 1
  %.not10 = icmp eq i8 %2, 49
  br i1 %.not10, label %.tail, label %.tail.thread

.tail:                                            ; preds = %sub_0
  %3 = getelementptr inbounds nuw i8, ptr %1, i64 1
  %4 = load i8, ptr %3, align 1
  %5 = icmp eq i8 %4, 0
  br i1 %5, label %10, label %.tail.thread

.tail.thread:                                     ; preds = %sub_0, %.tail, %0
  %6 = tail call ptr @getenv(ptr noundef nonnull @.str.2) #21
  %.not8 = icmp eq ptr %6, null
  br i1 %.not8, label %9, label %7

7:                                                ; preds = %.tail.thread
  %8 = tail call i32 @strcmp(ptr noundef nonnull dereferenceable(1) %6, ptr noundef nonnull dereferenceable(11) @.str.3) #24
  %.not9 = icmp eq i32 %8, 0
  br i1 %.not9, label %10, label %9

9:                                                ; preds = %7, %.tail.thread
  br label %10

10:                                               ; preds = %9, %7, %.tail
  %.0 = phi i1 [ true, %.tail ], [ false, %9 ], [ true, %7 ]
  ret i1 %.0
}